target datalayout = "e-m:e-p270:32:32-p271:32:32-p272:64:64-i64:64-i128:128-f80:128-n8:16:32:64-S128"
target triple = "x86_64-pc-linux-gnu"

@logicalrep_message_type.err_unknown = internal global [20 x i8] zeroinitializer, align 16
@.str.18 = private unnamed_addr constant [6 x i8] c"BEGIN\00", align 1
@.str.19 = private unnamed_addr constant [7 x i8] c"COMMIT\00", align 1
@.str.20 = private unnamed_addr constant [7 x i8] c"ORIGIN\00", align 1
@.str.21 = private unnamed_addr constant [7 x i8] c"INSERT\00", align 1
@.str.22 = private unnamed_addr constant [7 x i8] c"UPDATE\00", align 1
@.str.23 = private unnamed_addr constant [7 x i8] c"DELETE\00", align 1
@.str.24 = private unnamed_addr constant [9 x i8] c"TRUNCATE\00", align 1
@.str.25 = private unnamed_addr constant [9 x i8] c"RELATION\00", align 1
@.str.26 = private unnamed_addr constant [5 x i8] c"TYPE\00", align 1
@.str.27 = private unnamed_addr constant [8 x i8] c"MESSAGE\00", align 1
@.str.28 = private unnamed_addr constant [14 x i8] c"BEGIN PREPARE\00", align 1
@.str.29 = private unnamed_addr constant [8 x i8] c"PREPARE\00", align 1
@.str.30 = private unnamed_addr constant [16 x i8] c"COMMIT PREPARED\00", align 1
@.str.31 = private unnamed_addr constant [18 x i8] c"ROLLBACK PREPARED\00", align 1
@.str.32 = private unnamed_addr constant [13 x i8] c"STREAM START\00", align 1
@.str.33 = private unnamed_addr constant [12 x i8] c"STREAM STOP\00", align 1
@.str.34 = private unnamed_addr constant [14 x i8] c"STREAM COMMIT\00", align 1
@.str.35 = private unnamed_addr constant [13 x i8] c"STREAM ABORT\00", align 1
@.str.36 = private unnamed_addr constant [15 x i8] c"STREAM PREPARE\00", align 1
@.str.37 = private unnamed_addr constant [9 x i8] c"??? (%d)\00", align 1

; Function Attrs: nounwind uwtable
define dso_local ptr @logicalrep_message_type(i32 noundef %0) #0 {
  %2 = alloca ptr, align 8
  %3 = alloca i32, align 4
  store i32 %0, ptr %3, align 4
  %4 = load i32, ptr %3, align 4
  switch i32 %4, label %24 [
    i32 66, label %5
    i32 67, label %6
    i32 79, label %7
    i32 73, label %8
    i32 85, label %9
    i32 68, label %10
    i32 84, label %11
    i32 82, label %12
    i32 89, label %13
    i32 77, label %14
    i32 98, label %15
    i32 80, label %16
    i32 75, label %17
    i32 114, label %18
    i32 83, label %19
    i32 69, label %20
    i32 99, label %21
    i32 65, label %22
    i32 112, label %23
  ]

5:                                                ; preds = %1
  store ptr @.str.18, ptr %2, align 8
  br label %27

6:                                                ; preds = %1
  store ptr @.str.19, ptr %2, align 8
  br label %27

7:                                                ; preds = %1
  store ptr @.str.20, ptr %2, align 8
  br label %27

8:                                                ; preds = %1
  store ptr @.str.21, ptr %2, align 8
  br label %27

9:                                                ; preds = %1
  store ptr @.str.22, ptr %2, align 8
  br label %27

10:                                               ; preds = %1
  store ptr @.str.23, ptr %2, align 8
  br label %27

11:                                               ; preds = %1
  store ptr @.str.24, ptr %2, align 8
  br label %27

12:                                               ; preds = %1
  store ptr @.str.25, ptr %2, align 8
  br label %27

13:                                               ; preds = %1
  store ptr @.str.26, ptr %2, align 8
  br label %27

14:                                               ; preds = %1
  store ptr @.str.27, ptr %2, align 8
  br label %27

15:                                               ; preds = %1
  store ptr @.str.28, ptr %2, align 8
  br label %27

16:                                               ; preds = %1
  store ptr @.str.29, ptr %2, align 8
  br label %27

17:                                               ; preds = %1
  store ptr @.str.30, ptr %2, align 8
  br label %27

18:                                               ; preds = %1
  store ptr @.str.31, ptr %2, align 8
  br label %27

19:                                               ; preds = %1
  store ptr @.str.32, ptr %2, align 8
  br label %27

20:                                               ; preds = %1
  store ptr @.str.33, ptr %2, align 8
  br label %27

21:                                               ; preds = %1
  store ptr @.str.34, ptr %2, align 8
  br label %27

22:                                               ; preds = %1
  store ptr @.str.35, ptr %2, align 8
  br label %27

23:                                               ; preds = %1
  store ptr @.str.36, ptr %2, align 8
  br label %27

24:                                               ; preds = %1
  %25 = load i32, ptr %3, align 4
  %26 = call i32 (ptr, i64, ptr, ...) @pg_snprintf(ptr noundef @logicalrep_message_type.err_unknown, i64 noundef 20, ptr noundef @.str.37, i32 noundef %25)
  store ptr @logicalrep_message_type.err_unknown, ptr %2, align 8
  br label %27

27:                                               ; preds = %24, %23, %22, %21, %20, %19, %18, %17, %16, %15, %14, %13, %12, %11, %10, %9, %8, %7, %6, %5
  %28 = load ptr, ptr %2, align 8
  ret ptr %28
}