; Function Attrs: nounwind uwtable
define dso_local noundef nonnull ptr @logicalrep_message_type(i32 noundef %0) local_unnamed_addr #0 {
  switch i32 %0, label %20 [
    i32 66, label %22
    i32 67, label %2
    i32 79, label %3
    i32 73, label %4
    i32 85, label %5
    i32 68, label %6
    i32 84, label %7
    i32 82, label %8
    i32 89, label %9
    i32 77, label %10
    i32 98, label %11
    i32 80, label %12
    i32 75, label %13
    i32 114, label %14
    i32 83, label %15
    i32 69, label %16
    i32 99, label %17
    i32 65, label %18
    i32 112, label %19
  ]

2:                                                ; preds = %1
  br label %22

3:                                                ; preds = %1
  br label %22

4:                                                ; preds = %1
  br label %22

5:                                                ; preds = %1
  br label %22

6:                                                ; preds = %1
  br label %22

7:                                                ; preds = %1
  br label %22

8:                                                ; preds = %1
  br label %22

9:                                                ; preds = %1
  br label %22

10:                                               ; preds = %1
  br label %22

11:                                               ; preds = %1
  br label %22

12:                                               ; preds = %1
  br label %22

13:                                               ; preds = %1
  br label %22

14:                                               ; preds = %1
  br label %22

15:                                               ; preds = %1
  br label %22

16:                                               ; preds = %1
  br label %22

17:                                               ; preds = %1
  br label %22

18:                                               ; preds = %1
  br label %22

19:                                               ; preds = %1
  br label %22

20:                                               ; preds = %1
  %21 = tail call i32 (ptr, i64, ptr, ...) @pg_snprintf(ptr noundef nonnull @logicalrep_message_type.err_unknown, i64 noundef 20, ptr noundef nonnull @.str.37, i32 noundef %0) #8
  br label %22

22:                                               ; preds = %1, %20, %19, %18, %17, %16, %15, %14, %13, %12, %11, %10, %9, %8, %7, %6, %5, %4, %3, %2
  %.0 = phi ptr [ @logicalrep_message_type.err_unknown, %20 ], [ @.str.36, %19 ], [ @.str.35, %18 ], [ @.str.34, %17 ], [ @.str.33, %16 ], [ @.str.32, %15 ], [ @.str.31, %14 ], [ @.str.30, %13 ], [ @.str.29, %12 ], [ @.str.28, %11 ], [ @.str.27, %10 ], [ @.str.26, %9 ], [ @.str.25, %8 ], [ @.str.24, %7 ], [ @.str.23, %6 ], [ @.str.22, %5 ], [ @.str.21, %4 ], [ @.str.20, %3 ], [ @.str.19, %2 ], [ @.str.18, %1 ]
  ret ptr %.0
}